; Function Attrs: nounwind uwtable
define internal fastcc void @Wayland_free_display(ptr noundef readonly captures(address_is_null) %0, i1 noundef zeroext %1) unnamed_addr #0 {
  %.not = icmp eq ptr %0, null
  br i1 %.not, label %47, label %3

3:                                                ; preds = %2
  %4 = getelementptr inbounds nuw i8, ptr %0, i64 128
  %5 = load ptr, ptr %4, align 8
  %6 = tail call ptr @SDL_GetVideoDevice() #12
  %7 = getelementptr inbounds nuw i8, ptr %6, i64 832
  %.021 = load ptr, ptr %7, align 8
  %.not1822 = icmp eq ptr %.021, null
  br i1 %.not1822, label %._crit_edge, label %.lr.ph

._crit_edge:                                      ; preds = %.lr.ph, %3
  %8 = getelementptr inbounds nuw i8, ptr %5, i64 32
  %9 = load ptr, ptr %8, align 8
  tail call void @SDL_free_REAL(ptr noundef %9) #12
  %10 = getelementptr inbounds nuw i8, ptr %5, i64 24
  %11 = load ptr, ptr %10, align 8
  %.not19 = icmp eq ptr %11, null
  br i1 %.not19, label %23, label %15

.lr.ph:                                           ; preds = %3, %.lr.ph
  %.023 = phi ptr [ %.0, %.lr.ph ], [ %.021, %3 ]
  %12 = getelementptr inbounds nuw i8, ptr %.023, i64 392
  %13 = load ptr, ptr %12, align 8
  tail call void @Wayland_RemoveOutputFromWindow(ptr noundef %13, ptr noundef %5) #12
  %14 = getelementptr inbounds nuw i8, ptr %.023, i64 416
  %.0 = load ptr, ptr %14, align 8
  %.not18 = icmp eq ptr %.0, null
  br i1 %.not18, label %._crit_edge, label %.lr.ph, !llvm.loop !22

15:                                               ; preds = %._crit_edge
  %16 = getelementptr inbounds nuw i8, ptr %5, i64 256
  %17 = load ptr, ptr %16, align 8
  tail call void @Wayland_FreeColorInfoState(ptr noundef %17) #12
  %18 = load ptr, ptr %10, align 8
  %19 = load ptr, ptr @WAYLAND_wl_proxy_marshal_flags, align 8
  %20 = load ptr, ptr @WAYLAND_wl_proxy_get_version, align 8
  %21 = tail call i32 %20(ptr noundef %18) #12
  %22 = tail call ptr (ptr, i32, ptr, i32, i32, ...) %19(ptr noundef %18, i32 noundef 0, ptr noundef null, i32 noundef %21, i32 noundef 1) #12
  br label %23

23:                                               ; preds = %15, %._crit_edge
  %24 = getelementptr inbounds nuw i8, ptr %5, i64 16
  %25 = load ptr, ptr %24, align 8
  %.not20 = icmp eq ptr %25, null
  br i1 %.not20, label %31, label %26

26:                                               ; preds = %23
  %27 = load ptr, ptr @WAYLAND_wl_proxy_marshal_flags, align 8
  %28 = load ptr, ptr @WAYLAND_wl_proxy_get_version, align 8
  %29 = tail call i32 %28(ptr noundef nonnull %25) #12
  %30 = tail call ptr (ptr, i32, ptr, i32, i32, ...) %27(ptr noundef nonnull %25, i32 noundef 0, ptr noundef null, i32 noundef %29, i32 noundef 1) #12
  br label %31

31:                                               ; preds = %26, %23
  %32 = getelementptr inbounds nuw i8, ptr %5, i64 8
  %33 = load ptr, ptr %32, align 8
  %34 = load ptr, ptr @WAYLAND_wl_proxy_get_version, align 8
  %35 = tail call i32 %34(ptr noundef %33) #12
  %36 = icmp ugt i32 %35, 2
  %37 = load ptr, ptr %32, align 8
  br i1 %36, label %38, label %43

38:                                               ; preds = %31
  %39 = load ptr, ptr @WAYLAND_wl_proxy_marshal_flags, align 8
  %40 = load ptr, ptr @WAYLAND_wl_proxy_get_version, align 8
  %41 = tail call i32 %40(ptr noundef %37) #12
  %42 = tail call ptr (ptr, i32, ptr, i32, i32, ...) %39(ptr noundef %37, i32 noundef 0, ptr noundef null, i32 noundef %41, i32 noundef 1) #12
  br label %45

43:                                               ; preds = %31
  %44 = load ptr, ptr @WAYLAND_wl_proxy_destroy, align 8
  tail call void %44(ptr noundef %37) #12
  br label %45

45:                                               ; preds = %43, %38
  %46 = load i32, ptr %0, align 8
  tail call void @SDL_DelVideoDisplay(i32 noundef %46, i1 noundef zeroext %1) #12
  br label %47

47:                                               ; preds = %45, %2
  ret void
}